; ModuleID = '16/136.c'
source_filename = "16/136.c"
target datalayout = "e-m:e-p270:32:32-p271:32:32-p272:64:64-i64:64-f80:128-n8:16:32:64-S128"
target triple = "x86_64-pc-linux-gnu"

@.str = private unnamed_addr constant [3 x i8] c"%d\00", align 1
@.str.1 = private unnamed_addr constant [5 x i8] c"%d%d\00", align 1
@.str.2 = private unnamed_addr constant [7 x i8] c"%d%d%d\00", align 1
@.str.3 = private unnamed_addr constant [9 x i8] c"%d%d%d%d\00", align 1

; Function Attrs: noinline nounwind uwtable
define dso_local i32 @main() #0 {
  %1 = alloca i32, align 4
  %2 = alloca i32, align 4
  %3 = alloca i32, align 4
  %4 = alloca i32, align 4
  %5 = alloca i32, align 4
  %6 = alloca i32, align 4
  store i32 0, i32* %1, align 4
  %7 = call i32 (i8*, ...) @__isoc99_scanf(i8* getelementptr inbounds ([3 x i8], [3 x i8]* @.str, i64 0, i64 0), i32* %2)
  %8 = load i32, i32* %2, align 4
  %9 = icmp slt i32 %8, 10
  br i1 %9, label %10, label %13

10:                                               ; preds = %0
  %11 = load i32, i32* %2, align 4
  %12 = call i32 (i8*, ...) @printf(i8* getelementptr inbounds ([3 x i8], [3 x i8]* @.str, i64 0, i64 0), i32 %11)
  br label %13

13:                                               ; preds = %10, %0
  %14 = load i32, i32* %2, align 4
  %15 = icmp sgt i32 %14, 9
  br i1 %15, label %16, label %27

16:                                               ; preds = %13
  %17 = load i32, i32* %2, align 4
  %18 = icmp slt i32 %17, 100
  br i1 %18, label %19, label %27

19:                                               ; preds = %16
  %20 = load i32, i32* %2, align 4
  %21 = sdiv i32 %20, 10
  store i32 %21, i32* %3, align 4
  %22 = load i32, i32* %2, align 4
  %23 = srem i32 %22, 10
  store i32 %23, i32* %4, align 4
  %24 = load i32, i32* %4, align 4
  %25 = load i32, i32* %3, align 4
  %26 = call i32 (i8*, ...) @printf(i8* getelementptr inbounds ([5 x i8], [5 x i8]* @.str.1, i64 0, i64 0), i32 %24, i32 %25)
  br label %27

27:                                               ; preds = %19, %16, %13
  %28 = load i32, i32* %2, align 4
  %29 = icmp sgt i32 %28, 99
  br i1 %29, label %30, label %47

30:                                               ; preds = %27
  %31 = load i32, i32* %2, align 4
  %32 = icmp slt i32 %31, 1000
  br i1 %32, label %33, label %47

33:                                               ; preds = %30
  %34 = load i32, i32* %2, align 4
  %35 = sdiv i32 %34, 100
  store i32 %35, i32* %3, align 4
  %36 = load i32, i32* %2, align 4
  %37 = load i32, i32* %3, align 4
  %38 = mul nsw i32 %37, 100
  %39 = sub nsw i32 %36, %38
  %40 = sdiv i32 %39, 10
  store i32 %40, i32* %4, align 4
  %41 = load i32, i32* %2, align 4
  %42 = srem i32 %41, 10
  store i32 %42, i32* %5, align 4
  %43 = load i32, i32* %5, align 4
  %44 = load i32, i32* %4, align 4
  %45 = load i32, i32* %3, align 4
  %46 = call i32 (i8*, ...) @printf(i8* getelementptr inbounds ([7 x i8], [7 x i8]* @.str.2, i64 0, i64 0), i32 %43, i32 %44, i32 %45)
  br label %47

47:                                               ; preds = %33, %30, %27
  %48 = load i32, i32* %2, align 4
  %49 = icmp sgt i32 %48, 999
  br i1 %49, label %50, label %73

50:                                               ; preds = %47
  %51 = load i32, i32* %2, align 4
  %52 = sdiv i32 %51, 1000
  store i32 %52, i32* %3, align 4
  %53 = load i32, i32* %2, align 4
  %54 = load i32, i32* %3, align 4
  %55 = mul nsw i32 %54, 1000
  %56 = sub nsw i32 %53, %55
  %57 = sdiv i32 %56, 100
  store i32 %57, i32* %4, align 4
  %58 = load i32, i32* %2, align 4
  %59 = load i32, i32* %3, align 4
  %60 = mul nsw i32 %59, 1000
  %61 = sub nsw i32 %58, %60
  %62 = load i32, i32* %4, align 4
  %63 = mul nsw i32 %62, 100
  %64 = sub nsw i32 %61, %63
  %65 = sdiv i32 %64, 10
  store i32 %65, i32* %5, align 4
  %66 = load i32, i32* %2, align 4
  %67 = srem i32 %66, 10
  store i32 %67, i32* %6, align 4
  %68 = load i32, i32* %6, align 4
  %69 = load i32, i32* %5, align 4
  %70 = load i32, i32* %4, align 4
  %71 = load i32, i32* %3, align 4
  %72 = call i32 (i8*, ...) @printf(i8* getelementptr inbounds ([9 x i8], [9 x i8]* @.str.3, i64 0, i64 0), i32 %68, i32 %69, i32 %70, i32 %71)
  br label %73

73:                                               ; preds = %50, %47
  ret i32 0
}

declare dso_local i32 @__isoc99_scanf(i8*, ...) #1

declare dso_local i32 @printf(i8*, ...) #1


!llvm.module.flags = !{!0}
!llvm.ident = !{!1}

!0 = !{i32 1, !"wchar_size", i32 4}
!1 = !{!"clang version 10.0.0-4ubuntu1 "}
