; ModuleID = 'source-C-CXX/15/136.c'
source_filename = "source-C-CXX/15/136.c"
target datalayout = "e-m:e-p270:32:32-p271:32:32-p272:64:64-i64:64-f80:128-n8:16:32:64-S128"
target triple = "x86_64-pc-linux-gnu"

@.str = private unnamed_addr constant [3 x i8] c"%d\00", align 1
@.str.1 = private unnamed_addr constant [5 x i8] c"%d%d\00", align 1
@.str.2 = private unnamed_addr constant [7 x i8] c"%d%d%d\00", align 1
@.str.3 = private unnamed_addr constant [9 x i8] c"%d%d%d%d\00", align 1

; Function Attrs: nofree nounwind sspstrong uwtable
define dso_local i32 @main() local_unnamed_addr #0 {
  %1 = alloca i32, align 4
  %2 = bitcast i32* %1 to i8*
  call void @llvm.lifetime.start.p0i8(i64 4, i8* nonnull %2) #3
  %3 = call i32 (i8*, ...) @__isoc99_scanf(i8* getelementptr inbounds ([3 x i8], [3 x i8]* @.str, i64 0, i64 0), i32* nonnull %1)
  %4 = load i32, i32* %1, align 4, !tbaa !5
  %5 = icmp slt i32 %4, 10
  br i1 %5, label %6, label %9

6:                                                ; preds = %0
  %7 = call i32 (i8*, ...) @printf(i8* nonnull dereferenceable(1) getelementptr inbounds ([3 x i8], [3 x i8]* @.str, i64 0, i64 0), i32 %4)
  %8 = load i32, i32* %1, align 4, !tbaa !5
  br label %9

9:                                                ; preds = %6, %0
  %10 = phi i32 [ %8, %6 ], [ %4, %0 ]
  %11 = add i32 %10, -10
  %12 = icmp ult i32 %11, 90
  br i1 %12, label %13, label %21

13:                                               ; preds = %9
  %14 = trunc i32 %10 to i8
  %15 = udiv i8 %14, 10
  %16 = zext i8 %15 to i32
  %17 = urem i8 %14, 10
  %18 = zext i8 %17 to i32
  %19 = call i32 (i8*, ...) @printf(i8* nonnull dereferenceable(1) getelementptr inbounds ([5 x i8], [5 x i8]* @.str.1, i64 0, i64 0), i32 %18, i32 %16)
  %20 = load i32, i32* %1, align 4, !tbaa !5
  br label %21

21:                                               ; preds = %13, %9
  %22 = phi i32 [ %20, %13 ], [ %10, %9 ]
  %23 = add i32 %22, -100
  %24 = icmp ult i32 %23, 900
  br i1 %24, label %25, label %38

25:                                               ; preds = %21
  %26 = trunc i32 %22 to i16
  %27 = udiv i16 %26, 100
  %28 = zext i16 %27 to i32
  %29 = mul nsw i32 %28, -100
  %30 = add nsw i32 %29, %22
  %31 = trunc i32 %30 to i16
  %32 = sdiv i16 %31, 10
  %33 = sext i16 %32 to i32
  %34 = urem i16 %26, 10
  %35 = zext i16 %34 to i32
  %36 = call i32 (i8*, ...) @printf(i8* nonnull dereferenceable(1) getelementptr inbounds ([7 x i8], [7 x i8]* @.str.2, i64 0, i64 0), i32 %35, i32 %33, i32 %28)
  %37 = load i32, i32* %1, align 4, !tbaa !5
  br label %38

38:                                               ; preds = %25, %21
  %39 = phi i32 [ %37, %25 ], [ %22, %21 ]
  %40 = icmp sgt i32 %39, 999
  br i1 %40, label %41, label %51

41:                                               ; preds = %38
  %42 = udiv i32 %39, 1000
  %43 = mul nsw i32 %42, -1000
  %44 = add nsw i32 %43, %39
  %45 = sdiv i32 %44, 100
  %46 = mul nsw i32 %45, -100
  %47 = add i32 %46, %44
  %48 = sdiv i32 %47, 10
  %49 = urem i32 %39, 10
  %50 = call i32 (i8*, ...) @printf(i8* nonnull dereferenceable(1) getelementptr inbounds ([9 x i8], [9 x i8]* @.str.3, i64 0, i64 0), i32 %49, i32 %48, i32 %45, i32 %42)
  br label %51

51:                                               ; preds = %41, %38
  call void @llvm.lifetime.end.p0i8(i64 4, i8* nonnull %2) #3
  ret i32 0
}

; Function Attrs: argmemonly mustprogress nofree nosync nounwind willreturn
declare void @llvm.lifetime.start.p0i8(i64 immarg, i8* nocapture) #1

; Function Attrs: nofree nounwind
declare noundef i32 @__isoc99_scanf(i8* nocapture noundef readonly, ...) local_unnamed_addr #2

; Function Attrs: nofree nounwind
declare noundef i32 @printf(i8* nocapture noundef readonly, ...) local_unnamed_addr #2

; Function Attrs: argmemonly mustprogress nofree nosync nounwind willreturn
declare void @llvm.lifetime.end.p0i8(i64 immarg, i8* nocapture) #1


!llvm.module.flags = !{!0, !1, !2, !3}
!llvm.ident = !{!4}

!0 = !{i32 1, !"wchar_size", i32 4}
!1 = !{i32 7, !"PIC Level", i32 2}
!2 = !{i32 7, !"PIE Level", i32 2}
!3 = !{i32 7, !"uwtable", i32 1}
!4 = !{!"clang version 13.0.0"}
!5 = !{!6, !6, i64 0}
!6 = !{!"int", !7, i64 0}
!7 = !{!"omnipotent char", !8, i64 0}
!8 = !{!"Simple C/C++ TBAA"}
